(dp0
Vengine
p1
S'pdflatex'
p2
sVpackages
p3
c__builtin__
set
p4
((lp5
Vgeometry
p6
aVhyperref
p7
aVenumitem
p8
aVmulticol
p9
aVsectsty
p10
atp11
Rp12
sVfiles_with_guttermarks
p13
g4
((lp14
S'Adams_David_cv2018.tex'
p15
aV/Users/dpadams/Dropbox (Personal)/CV/CV/2018/./Adams_David_cv2018.tex
p16
atp17
Rp18
sVsynctex
p19
I01
s.