(dp0
Vengine
p1
S'pdflatex'
p2
sVpackages
p3
c__builtin__
set
p4
((lp5
Vgeometry
p6
aVhyperref
p7
aVenumitem
p8
aVmulticol
p9
aVsectsty
p10
atp11
Rp12
sVfiles_with_guttermarks
p13
g4
((lp14
S'Adams_David_cv2017.tex'
p15
atp16
Rp17
sVsynctex
p18
I01
s.